; Function Attrs: nounwind uwtable
define ptr @av_packet_clone(ptr noundef readonly captures(none) %0) local_unnamed_addr #3 {
  %2 = alloca ptr, align 8
  call void @llvm.lifetime.start.p0(i64 8, ptr nonnull %2) #16
  %3 = tail call noalias ptr @av_malloc(i64 noundef 104) #16
  %.not.i = icmp eq ptr %3, null
  br i1 %.not.i, label %av_packet_free.exit, label %4

4:                                                ; preds = %1
  tail call void @llvm.memset.p0.i64(ptr noundef nonnull align 8 dereferenceable(104) %3, i8 0, i64 96, i1 false)
  %5 = getelementptr inbounds nuw i8, ptr %3, i64 8
  store i64 -9223372036854775808, ptr %5, align 8, !tbaa !4
  %6 = getelementptr inbounds nuw i8, ptr %3, i64 16
  store i64 -9223372036854775808, ptr %6, align 8, !tbaa !15
  %7 = getelementptr inbounds nuw i8, ptr %3, i64 72
  store i64 -1, ptr %7, align 8, !tbaa !16
  %8 = getelementptr inbounds nuw i8, ptr %3, i64 96
  store i64 4294967296, ptr %8, align 8
  store ptr %3, ptr %2, align 8, !tbaa !23
  %9 = tail call i32 @av_packet_ref(ptr noundef nonnull %3, ptr noundef %0)
  %.not3 = icmp eq i32 %9, 0
  br i1 %.not3, label %av_packet_free.exit, label %10

10:                                               ; preds = %4
  %11 = getelementptr inbounds nuw i8, ptr %3, i64 56
  %12 = load i32, ptr %11, align 8, !tbaa !22
  %13 = icmp sgt i32 %12, 0
  br i1 %13, label %.lr.ph.i.i.i, label %av_packet_unref.exit.i

.lr.ph.i.i.i:                                     ; preds = %10
  %14 = getelementptr inbounds nuw i8, ptr %3, i64 48
  br label %15

15:                                               ; preds = %15, %.lr.ph.i.i.i
  %indvars.iv.i.i.i = phi i64 [ 0, %.lr.ph.i.i.i ], [ %indvars.iv.next.i.i.i, %15 ]
  %16 = load ptr, ptr %14, align 8, !tbaa !21
  %17 = getelementptr inbounds nuw %struct.AVPacketSideData, ptr %16, i64 %indvars.iv.i.i.i
  tail call void @av_freep(ptr noundef %17) #16
  %indvars.iv.next.i.i.i = add nuw nsw i64 %indvars.iv.i.i.i, 1
  %18 = load i32, ptr %11, align 8, !tbaa !22
  %19 = sext i32 %18 to i64
  %20 = icmp slt i64 %indvars.iv.next.i.i.i, %19
  br i1 %20, label %15, label %av_packet_unref.exit.i, !llvm.loop !25

av_packet_unref.exit.i:                           ; preds = %15, %10
  %21 = getelementptr inbounds nuw i8, ptr %3, i64 48
  tail call void @av_freep(ptr noundef nonnull %21) #16
  store i32 0, ptr %11, align 8, !tbaa !22
  %22 = getelementptr inbounds nuw i8, ptr %3, i64 88
  tail call void @av_buffer_unref(ptr noundef nonnull %22) #16
  tail call void @av_buffer_unref(ptr noundef nonnull %3) #16
  tail call void @llvm.memset.p0.i64(ptr noundef nonnull align 8 dereferenceable(104) %3, i8 0, i64 96, i1 false)
  store i64 -9223372036854775808, ptr %5, align 8, !tbaa !4
  store i64 -9223372036854775808, ptr %6, align 8, !tbaa !15
  store i64 -1, ptr %7, align 8, !tbaa !16
  store i64 4294967296, ptr %8, align 8
  call void @av_freep(ptr noundef nonnull %2) #16
  %.pre = load ptr, ptr %2, align 8, !tbaa !23
  br label %av_packet_free.exit

av_packet_free.exit:                              ; preds = %1, %4, %av_packet_unref.exit.i
  %.0 = phi ptr [ %.pre, %av_packet_unref.exit.i ], [ %3, %4 ], [ null, %1 ]
  call void @llvm.lifetime.end.p0(i64 8, ptr nonnull %2) #16
  ret ptr %.0
}